; Function Attrs: uwtable
define range(i32 -4, 1) i32 @faiss_index_binary_factory(ptr noundef writeonly captures(none) %0, i32 noundef %1, ptr noundef %2) local_unnamed_addr #3 personality ptr @__gxx_personality_v0 {
  %4 = alloca %"class.std::__exception_ptr::exception_ptr", align 8
  %5 = alloca %"class.std::__exception_ptr::exception_ptr", align 8
  %6 = alloca %"class.std::__exception_ptr::exception_ptr", align 8
  %7 = alloca %"class.std::__exception_ptr::exception_ptr", align 8
  %8 = alloca %"class.std::runtime_error", align 8
  %9 = alloca %"class.std::__exception_ptr::exception_ptr", align 8
  %10 = alloca %"class.std::exception", align 8
  %11 = alloca %"class.std::__exception_ptr::exception_ptr", align 8
  %12 = alloca %"class.faiss::FaissException", align 8
  %13 = invoke noundef ptr @_ZN5faiss20index_binary_factoryEiPKc(i32 noundef %1, ptr noundef %2)
          to label %14 unwind label %15

14:                                               ; preds = %3
  store ptr %13, ptr %0, align 8, !tbaa !21
  br label %50

15:                                               ; preds = %3
  %16 = landingpad { ptr, i32 }
          catch ptr @_ZTIN5faiss14FaissExceptionE
          catch ptr @_ZTISt9exception
          catch ptr null
  %17 = extractvalue { ptr, i32 } %16, 0
  %18 = extractvalue { ptr, i32 } %16, 1
  %19 = tail call i32 @llvm.eh.typeid.for.p0(ptr nonnull @_ZTIN5faiss14FaissExceptionE) #16
  %20 = icmp eq i32 %18, %19
  br i1 %20, label %21, label %29

21:                                               ; preds = %15
  %22 = tail call ptr @__cxa_begin_catch(ptr %17) #16
  call void @llvm.lifetime.start.p0(i64 8, ptr nonnull %11) #16
  invoke void @_ZN5faiss14FaissExceptionC2ERKS0_(ptr noundef nonnull align 8 dereferenceable(40) %12, ptr noundef nonnull align 8 dereferenceable(40) %22)
          to label %23 unwind label %48

23:                                               ; preds = %21
  call void @_ZSt18make_exception_ptrIN5faiss14FaissExceptionEENSt15__exception_ptr13exception_ptrET_(ptr dead_on_unwind nonnull writable sret(%"class.std::__exception_ptr::exception_ptr") align 8 %11, ptr noundef nonnull %12) #16
  %.not.i = icmp eq ptr @_ZTH20faiss_last_exception, null
  br i1 %.not.i, label %_ZTW20faiss_last_exception.exit, label %24

24:                                               ; preds = %23
  call void @_ZTH20faiss_last_exception()
  br label %_ZTW20faiss_last_exception.exit

_ZTW20faiss_last_exception.exit:                  ; preds = %23, %24
  %25 = call noundef align 8 ptr @llvm.threadlocal.address.p0(ptr align 8 @faiss_last_exception)
  call void @llvm.lifetime.start.p0(i64 8, ptr nonnull %6) #16
  %26 = load ptr, ptr %11, align 8, !tbaa !8
  store ptr null, ptr %11, align 8, !tbaa !8
  %27 = load ptr, ptr %25, align 8, !tbaa !8
  store ptr %27, ptr %6, align 8, !tbaa !8
  store ptr %26, ptr %25, align 8, !tbaa !8
  %.not.i.i = icmp eq ptr %27, null
  br i1 %.not.i.i, label %_ZNSt15__exception_ptr13exception_ptraSEOS0_.exit.thread, label %_ZNSt15__exception_ptr13exception_ptraSEOS0_.exit

_ZNSt15__exception_ptr13exception_ptraSEOS0_.exit.thread: ; preds = %_ZTW20faiss_last_exception.exit
  call void @llvm.lifetime.end.p0(i64 8, ptr nonnull %6) #16
  br label %_ZNSt15__exception_ptr13exception_ptrD2Ev.exit

_ZNSt15__exception_ptr13exception_ptraSEOS0_.exit: ; preds = %_ZTW20faiss_last_exception.exit
  call void @_ZNSt15__exception_ptr13exception_ptr10_M_releaseEv(ptr noundef nonnull align 8 dereferenceable(8) %6) #16
  %.pr = load ptr, ptr %11, align 8, !tbaa !8
  call void @llvm.lifetime.end.p0(i64 8, ptr nonnull %6) #16
  %.not.i15 = icmp eq ptr %.pr, null
  br i1 %.not.i15, label %_ZNSt15__exception_ptr13exception_ptrD2Ev.exit, label %28

28:                                               ; preds = %_ZNSt15__exception_ptr13exception_ptraSEOS0_.exit
  call void @_ZNSt15__exception_ptr13exception_ptr10_M_releaseEv(ptr noundef nonnull align 8 dereferenceable(8) %11) #16
  br label %_ZNSt15__exception_ptr13exception_ptrD2Ev.exit

_ZNSt15__exception_ptr13exception_ptrD2Ev.exit:   ; preds = %_ZNSt15__exception_ptr13exception_ptraSEOS0_.exit.thread, %_ZNSt15__exception_ptr13exception_ptraSEOS0_.exit, %28
  call void @_ZN5faiss14FaissExceptionD2Ev(ptr noundef nonnull align 8 dereferenceable(40) %12) #16
  call void @llvm.lifetime.end.p0(i64 8, ptr nonnull %11) #16
  call void @__cxa_end_catch()
  br label %50

29:                                               ; preds = %15
  %30 = tail call i32 @llvm.eh.typeid.for.p0(ptr nonnull @_ZTISt9exception) #16
  %31 = icmp eq i32 %18, %30
  %32 = tail call ptr @__cxa_begin_catch(ptr %17) #16
  br i1 %31, label %33, label %39

33:                                               ; preds = %29
  call void @llvm.lifetime.start.p0(i64 8, ptr nonnull %9) #16
  store ptr getelementptr inbounds nuw inrange(-16, 24) (i8, ptr @_ZTVSt9exception, i64 16), ptr %10, align 8, !tbaa !10
  call void @_ZSt18make_exception_ptrISt9exceptionENSt15__exception_ptr13exception_ptrET_(ptr dead_on_unwind nonnull writable sret(%"class.std::__exception_ptr::exception_ptr") align 8 %9, ptr noundef nonnull %10) #16
  %.not.i16 = icmp eq ptr @_ZTH20faiss_last_exception, null
  br i1 %.not.i16, label %_ZTW20faiss_last_exception.exit17, label %34

34:                                               ; preds = %33
  call void @_ZTH20faiss_last_exception()
  br label %_ZTW20faiss_last_exception.exit17

_ZTW20faiss_last_exception.exit17:                ; preds = %33, %34
  %35 = call noundef align 8 ptr @llvm.threadlocal.address.p0(ptr align 8 @faiss_last_exception)
  call void @llvm.lifetime.start.p0(i64 8, ptr nonnull %5) #16
  %36 = load ptr, ptr %9, align 8, !tbaa !8
  store ptr null, ptr %9, align 8, !tbaa !8
  %37 = load ptr, ptr %35, align 8, !tbaa !8
  store ptr %37, ptr %5, align 8, !tbaa !8
  store ptr %36, ptr %35, align 8, !tbaa !8
  %.not.i.i18 = icmp eq ptr %37, null
  br i1 %.not.i.i18, label %_ZNSt15__exception_ptr13exception_ptraSEOS0_.exit19.thread, label %_ZNSt15__exception_ptr13exception_ptraSEOS0_.exit19

_ZNSt15__exception_ptr13exception_ptraSEOS0_.exit19.thread: ; preds = %_ZTW20faiss_last_exception.exit17
  call void @llvm.lifetime.end.p0(i64 8, ptr nonnull %5) #16
  br label %_ZNSt15__exception_ptr13exception_ptrD2Ev.exit21

_ZNSt15__exception_ptr13exception_ptraSEOS0_.exit19: ; preds = %_ZTW20faiss_last_exception.exit17
  call void @_ZNSt15__exception_ptr13exception_ptr10_M_releaseEv(ptr noundef nonnull align 8 dereferenceable(8) %5) #16
  %.pr29 = load ptr, ptr %9, align 8, !tbaa !8
  call void @llvm.lifetime.end.p0(i64 8, ptr nonnull %5) #16
  %.not.i20 = icmp eq ptr %.pr29, null
  br i1 %.not.i20, label %_ZNSt15__exception_ptr13exception_ptrD2Ev.exit21, label %38

38:                                               ; preds = %_ZNSt15__exception_ptr13exception_ptraSEOS0_.exit19
  call void @_ZNSt15__exception_ptr13exception_ptr10_M_releaseEv(ptr noundef nonnull align 8 dereferenceable(8) %9) #16
  br label %_ZNSt15__exception_ptr13exception_ptrD2Ev.exit21

_ZNSt15__exception_ptr13exception_ptrD2Ev.exit21: ; preds = %_ZNSt15__exception_ptr13exception_ptraSEOS0_.exit19.thread, %_ZNSt15__exception_ptr13exception_ptraSEOS0_.exit19, %38
  call void @_ZNSt9exceptionD1Ev(ptr noundef nonnull align 8 dereferenceable(8) %10) #16
  call void @llvm.lifetime.end.p0(i64 8, ptr nonnull %9) #16
  call void @__cxa_end_catch()
  br label %50

39:                                               ; preds = %29
  call void @llvm.lifetime.start.p0(i64 8, ptr nonnull %7) #16
  invoke void @_ZNSt13runtime_errorC1EPKc(ptr noundef nonnull align 8 dereferenceable(16) %8, ptr noundef nonnull @.str)
          to label %40 unwind label %46

40:                                               ; preds = %39
  call void @_ZSt18make_exception_ptrISt13runtime_errorENSt15__exception_ptr13exception_ptrET_(ptr dead_on_unwind nonnull writable sret(%"class.std::__exception_ptr::exception_ptr") align 8 %7, ptr noundef nonnull %8) #16
  %.not.i22 = icmp eq ptr @_ZTH20faiss_last_exception, null
  br i1 %.not.i22, label %_ZTW20faiss_last_exception.exit23, label %41

41:                                               ; preds = %40
  call void @_ZTH20faiss_last_exception()
  br label %_ZTW20faiss_last_exception.exit23

_ZTW20faiss_last_exception.exit23:                ; preds = %40, %41
  %42 = call noundef align 8 ptr @llvm.threadlocal.address.p0(ptr align 8 @faiss_last_exception)
  call void @llvm.lifetime.start.p0(i64 8, ptr nonnull %4) #16
  %43 = load ptr, ptr %7, align 8, !tbaa !8
  store ptr null, ptr %7, align 8, !tbaa !8
  %44 = load ptr, ptr %42, align 8, !tbaa !8
  store ptr %44, ptr %4, align 8, !tbaa !8
  store ptr %43, ptr %42, align 8, !tbaa !8
  %.not.i.i24 = icmp eq ptr %44, null
  br i1 %.not.i.i24, label %_ZNSt15__exception_ptr13exception_ptraSEOS0_.exit25.thread, label %_ZNSt15__exception_ptr13exception_ptraSEOS0_.exit25

_ZNSt15__exception_ptr13exception_ptraSEOS0_.exit25.thread: ; preds = %_ZTW20faiss_last_exception.exit23
  call void @llvm.lifetime.end.p0(i64 8, ptr nonnull %4) #16
  br label %_ZNSt15__exception_ptr13exception_ptrD2Ev.exit27

_ZNSt15__exception_ptr13exception_ptraSEOS0_.exit25: ; preds = %_ZTW20faiss_last_exception.exit23
  call void @_ZNSt15__exception_ptr13exception_ptr10_M_releaseEv(ptr noundef nonnull align 8 dereferenceable(8) %4) #16
  %.pr31 = load ptr, ptr %7, align 8, !tbaa !8
  call void @llvm.lifetime.end.p0(i64 8, ptr nonnull %4) #16
  %.not.i26 = icmp eq ptr %.pr31, null
  br i1 %.not.i26, label %_ZNSt15__exception_ptr13exception_ptrD2Ev.exit27, label %45

45:                                               ; preds = %_ZNSt15__exception_ptr13exception_ptraSEOS0_.exit25
  call void @_ZNSt15__exception_ptr13exception_ptr10_M_releaseEv(ptr noundef nonnull align 8 dereferenceable(8) %7) #16
  br label %_ZNSt15__exception_ptr13exception_ptrD2Ev.exit27

_ZNSt15__exception_ptr13exception_ptrD2Ev.exit27: ; preds = %_ZNSt15__exception_ptr13exception_ptraSEOS0_.exit25.thread, %_ZNSt15__exception_ptr13exception_ptraSEOS0_.exit25, %45
  call void @_ZNSt13runtime_errorD1Ev(ptr noundef nonnull align 8 dereferenceable(16) %8) #16
  call void @llvm.lifetime.end.p0(i64 8, ptr nonnull %7) #16
  call void @__cxa_end_catch()
  br label %50

46:                                               ; preds = %39
  %47 = landingpad { ptr, i32 }
          cleanup
  call void @llvm.lifetime.end.p0(i64 8, ptr nonnull %7) #16
  invoke void @__cxa_end_catch()
          to label %51 unwind label %52

48:                                               ; preds = %21
  %49 = landingpad { ptr, i32 }
          cleanup
  call void @llvm.lifetime.end.p0(i64 8, ptr nonnull %11) #16
  invoke void @__cxa_end_catch()
          to label %51 unwind label %52

50:                                               ; preds = %14, %_ZNSt15__exception_ptr13exception_ptrD2Ev.exit27, %_ZNSt15__exception_ptr13exception_ptrD2Ev.exit21, %_ZNSt15__exception_ptr13exception_ptrD2Ev.exit
  %.0 = phi i32 [ 0, %14 ], [ -2, %_ZNSt15__exception_ptr13exception_ptrD2Ev.exit ], [ -4, %_ZNSt15__exception_ptr13exception_ptrD2Ev.exit21 ], [ -1, %_ZNSt15__exception_ptr13exception_ptrD2Ev.exit27 ]
  ret i32 %.0

51:                                               ; preds = %48, %46
  %.pn = phi { ptr, i32 } [ %47, %46 ], [ %49, %48 ]
  resume { ptr, i32 } %.pn

52:                                               ; preds = %48, %46
  %53 = landingpad { ptr, i32 }
          catch ptr null
  %54 = extractvalue { ptr, i32 } %53, 0
  call void @__clang_call_terminate(ptr %54) #17
  unreachable
}